; Function Attrs: mustprogress uwtable
define internal void @_ZN12_GLOBAL__N_113tactic2solver29user_propagate_register_fixedERSt8functionIFvPvPN15user_propagator8callbackEP4exprS7_EE(ptr noundef nonnull readonly align 8 captures(none) dereferenceable(225) %0, ptr noundef nonnull align 1 %1) unnamed_addr #3 align 2 {
  %3 = getelementptr inbounds nuw i8, ptr %0, i64 176
  %4 = load ptr, ptr %3, align 8, !tbaa !52
  %5 = load ptr, ptr %4, align 8, !tbaa !3
  %6 = getelementptr inbounds nuw i8, ptr %5, i64 24
  %7 = load ptr, ptr %6, align 8
  tail call void %7(ptr noundef nonnull align 8 dereferenceable(8) %4, ptr noundef nonnull align 1 %1)
  ret void
}